Certificate:
    Data:
        Version: 1 (0x0)
        Serial Number: 1 (0x1)
        Signature Algorithm: sha1WithRSAEncryption
        Issuer: C=IT, ST=Italy, L=Trento, O=UniTN
        Validity
            Not Before: Jan  5 15:05:45 2016 GMT
            Not After : Jan  4 15:05:45 2017 GMT
        Subject: C=IT, ST=Italy, L=Povo, O=Dip. MAT
        Subject Public Key Info:
            Public Key Algorithm: rsaEncryption
            RSA Public Key: (1024 bit)
                Modulus (1024 bit):
                    00:d4:c5:95:8c:28:c1:d8:40:75:b3:89:0a:c2:ee:
                    20:b1:bf:1e:d4:bf:58:4c:a0:5f:51:03:7f:d2:51:
                    53:ca:59:33:aa:2c:16:e6:1b:2e:de:07:53:4b:f8:
                    67:83:ce:eb:f6:21:52:01:6b:35:93:71:76:24:0b:
                    54:c6:81:fb:1a:c6:d4:18:e9:84:15:7c:7f:f4:33:
                    1c:1a:37:ea:d6:f9:81:2b:fb:e4:2d:c7:48:4d:b8:
                    8e:32:8b:b6:43:ae:f1:74:89:5d:5c:95:9f:6f:91:
                    d3:de:42:f4:a7:c6:94:ca:e3:d6:f0:5b:04:08:eb:
                    c9:39:88:87:8a:0b:ea:83:4b
                Exponent: 65537 (0x10001)
    Signature Algorithm: sha1WithRSAEncryption
        1d:6b:28:e5:ec:83:4c:6f:3e:30:e4:93:bf:fc:aa:8d:73:04:
        de:73:fc:49:e1:fa:24:59:d1:7f:78:50:bb:75:6f:ef:04:8c:
        e5:ba:0f:ad:61:e9:75:ea:59:91:65:3b:51:63:79:31:63:94:
        5a:95:a5:35:6c:fc:8a:ca:1e:49:e9:72:b5:26:17:2b:ae:69:
        29:63:56:e8:f2:79:61:11:3d:e2:44:22:04:39:13:18:3a:39:
        44:95:82:88:76:e9:c7:a6:5e:9d:6c:58:a9:cf:1f:5a:35:c4:
        05:7b:54:f1:12:fe:49:7a:5c:b8:4a:f2:8e:17:a9:8b:15:56:
        c9:34
-----BEGIN CERTIFICATE-----
MIIB7DCCAVUCAQEwDQYJKoZIhvcNAQEFBQAwPjELMAkGA1UEBhMCSVQxDjAMBgNV
BAgTBUl0YWx5MQ8wDQYDVQQHEwZUcmVudG8xDjAMBgNVBAoTBVVuaVROMB4XDTE2
MDEwNTE1MDU0NVoXDTE3MDEwNDE1MDU0NVowPzELMAkGA1UEBhMCSVQxDjAMBgNV
BAgTBUl0YWx5MQ0wCwYDVQQHEwRQb3ZvMREwDwYDVQQKEwhEaXAuIE1BVDCBnzAN
BgkqhkiG9w0BAQEFAAOBjQAwgYkCgYEA1MWVjCjB2EB1s4kKwu4gsb8e1L9YTKBf
UQN/0lFTylkzqiwW5hsu3gdTS/hng87r9iFSAWs1k3F2JAtUxoH7GsbUGOmEFXx/
9DMcGjfq1vmBK/vkLcdITbiOMou2Q67xdIldXJWfb5HT3kL0p8aUyuPW8FsECOvJ
OYiHigvqg0sCAwEAATANBgkqhkiG9w0BAQUFAAOBgQAdayjl7INMbz4w5JO//KqN
cwTec/xJ4fokWdF/eFC7dW/vBIzlug+tYel16lmRZTtRY3kxY5RalaU1bPyKyh5J
6XK1JhcrrmkpY1bo8nlhET3iRCIEORMYOjlElYKIdunHpl6dbFipzx9aNcQFe1Tx
Ev5Jely4SvKOF6mLFVbJNA==
-----END CERTIFICATE-----
